Certificate:
    Data:
        Version: 3 (0x2)
        Serial Number:
            1d:1b:e9:2a:fd:5a:60:3c:c3:90:a3:eb:04:38:96:40:f6:5a:fe:a5
        Signature Algorithm: sha256WithRSAEncryption
        Issuer: C=UY, ST=Montevideo, O=jrmsdev, OU=devel, CN=munbot.devel/emailAddress=jrmsdev@gmail.com
        Validity
            Not Before: Jul  1 07:03:49 2020 GMT
            Not After : Jul  1 07:03:49 2023 GMT
        Subject: C=UY, ST=Montevideo, O=jrmsdev, OU=devel, CN=munbot.devel/emailAddress=jrmsdev@gmail.com
        Subject Public Key Info:
            Public Key Algorithm: rsaEncryption
                RSA Public-Key: (4096 bit)
                Modulus:
                    00:c5:33:8a:c9:9a:b9:51:3d:77:22:22:e1:a7:7a:
                    54:e3:cc:c1:17:1c:2d:a5:a4:a4:37:55:82:2c:79:
                    e4:a8:68:1d:ad:0f:65:8f:44:b3:47:84:08:81:fc:
                    45:85:8e:e6:df:0c:5a:8c:9e:22:ab:a3:73:46:85:
                    d5:a3:64:8c:34:a8:e9:e3:cd:90:20:16:42:91:b7:
                    89:bc:2a:85:d7:f0:48:02:94:8b:47:fd:f4:aa:0a:
                    c1:9a:f3:b7:cb:7f:32:c2:fb:3f:2e:21:66:11:fd:
                    e4:61:ee:89:f5:e6:bc:e3:c8:b9:49:cd:0c:a8:8c:
                    eb:46:7c:4b:e2:a5:23:cc:88:e3:e4:05:38:54:d6:
                    c2:a4:90:b2:8e:f8:d4:80:34:5a:dc:80:a0:37:ac:
                    38:15:2a:9c:97:7e:22:52:fa:81:18:da:13:8c:43:
                    4c:4b:a5:29:d0:7c:64:1e:e9:56:a6:1c:ea:f2:9e:
                    d8:93:1f:05:a8:ed:83:0e:eb:cc:d0:da:92:02:55:
                    9c:d5:62:2d:b4:be:3a:8e:5e:23:ee:eb:d6:94:ed:
                    7f:da:1e:ba:36:de:2c:f9:00:ee:f0:5d:4b:84:24:
                    5b:53:41:80:0e:7a:22:b5:19:c0:d4:ae:06:5f:7c:
                    07:fe:d3:47:75:ef:65:05:ea:05:a8:40:d9:7b:a1:
                    94:e3:45:73:96:b2:de:0e:02:79:c3:86:32:ef:de:
                    75:ff:c5:e6:45:e9:30:f1:ed:16:f6:cc:ef:f3:d2:
                    d1:82:a0:35:ad:e9:14:4e:34:07:b7:01:86:d6:22:
                    23:75:50:39:7b:11:2a:ef:ca:4d:02:d5:b7:b9:18:
                    b0:d8:52:5c:2f:9e:d3:3f:d3:08:de:9c:6b:0a:a0:
                    82:ea:db:39:29:4a:20:05:3b:f9:5d:28:5c:7e:52:
                    64:99:d2:6d:38:f5:df:5a:45:69:90:11:89:8c:ca:
                    86:54:d0:5a:57:5c:0e:e4:e1:4a:57:4e:ea:de:1a:
                    a3:bc:7d:2a:7f:37:67:4b:c4:b8:b0:bb:70:9d:c1:
                    19:1f:4d:13:15:34:ed:35:8d:8c:06:7d:8d:1b:54:
                    a3:66:03:76:f5:b0:70:82:9d:11:5d:04:fe:a4:0e:
                    ac:92:40:12:a4:f7:18:2a:1e:dc:cd:54:64:a1:81:
                    9d:a0:44:05:85:76:4e:ac:f0:a2:30:d3:55:27:55:
                    2e:29:23:49:0e:4e:c8:10:ef:77:41:bc:ed:a5:00:
                    62:bc:80:e8:57:8a:a8:d4:80:0a:6c:14:80:d5:56:
                    51:0a:20:9d:a7:02:09:c1:e6:08:9c:0a:15:81:37:
                    d7:9f:30:50:00:68:5f:ca:93:24:86:8e:a1:ef:71:
                    2a:b9:81
                Exponent: 65537 (0x10001)
        X509v3 extensions:
            X509v3 Subject Key Identifier: 
                E8:76:93:F5:67:AB:8E:9A:8B:80:5E:2B:A6:99:A2:1B:50:DC:3F:98
            X509v3 Authority Key Identifier: 
                keyid:E8:76:93:F5:67:AB:8E:9A:8B:80:5E:2B:A6:99:A2:1B:50:DC:3F:98

            X509v3 Basic Constraints: critical
                CA:TRUE
    Signature Algorithm: sha256WithRSAEncryption
         8a:52:bc:f4:b0:f9:ca:ed:47:26:7d:44:62:76:e4:9e:23:e6:
         63:a4:3b:ee:7c:39:b2:60:e6:14:57:17:68:aa:72:85:c8:6f:
         f7:55:72:de:fb:e9:22:85:ac:02:ae:e4:57:69:54:59:22:66:
         c5:ed:65:7b:2f:8b:00:fc:06:bd:39:35:8f:a1:78:5b:f6:49:
         49:8d:d1:54:40:80:7c:94:fb:de:8e:8f:5f:15:a2:91:c3:cb:
         ed:5f:45:4b:4b:61:8f:57:72:0e:91:fe:a3:18:2f:3c:d8:58:
         17:db:42:b3:a3:36:0f:08:b6:e0:11:1f:bb:83:94:41:7a:72:
         bd:15:0c:7c:e8:8e:27:7d:0f:9e:4d:94:09:ee:b4:f0:d8:9f:
         5a:08:ea:50:86:96:ae:8b:7c:75:0e:20:52:48:4b:62:c4:cb:
         67:a0:ed:e1:eb:3e:1f:66:8d:f6:bb:d9:b5:9c:f4:80:ac:17:
         a4:d8:9a:24:b9:6f:38:90:03:c1:8f:3d:03:2d:60:aa:09:4e:
         5a:6f:fe:44:be:f7:7f:45:84:f0:d2:4c:b1:28:84:4f:cd:bc:
         14:30:52:a1:03:ed:49:93:54:f1:02:69:f0:3c:52:e8:f0:89:
         a3:df:f7:4f:9f:6e:aa:6e:93:ce:af:7a:e2:e9:01:c5:19:42:
         d3:1a:48:43:1a:66:81:11:fe:a5:9e:07:a3:a8:31:1b:2c:7e:
         86:a0:44:4e:7d:de:d6:ed:08:3d:dd:90:05:31:57:b9:83:3b:
         68:e0:2f:b5:94:55:b2:ee:6d:e8:3b:eb:a7:19:3f:97:d9:4f:
         b9:0a:9d:ef:44:b6:42:65:07:e0:de:9d:61:b3:a7:15:db:86:
         e7:77:f4:9e:55:fa:3e:a5:51:4d:8a:3a:b6:11:c2:4a:c9:2d:
         ff:50:60:1a:b9:35:60:51:2c:44:fa:1d:be:47:e8:da:77:3f:
         ef:20:1b:40:85:6b:b5:7f:5a:82:a4:ae:6c:5f:65:de:43:56:
         3f:45:c0:fa:94:30:13:51:e9:3f:ca:73:6f:48:27:68:e0:6c:
         5e:33:e1:3c:a1:98:46:46:a9:24:f7:29:55:97:a4:03:47:79:
         52:d7:52:f0:5b:18:36:91:f2:48:01:60:5d:6f:9f:56:52:6f:
         25:b4:1a:bf:28:01:47:4a:d1:f1:63:92:11:eb:c9:44:21:02:
         90:2a:b1:08:33:25:e7:25:26:61:ee:7f:9e:ed:0d:b8:18:db:
         dc:22:64:64:00:2c:0b:06:4f:b3:3d:ca:bd:41:bc:a0:c4:3d:
         19:d8:c3:a6:46:7b:a2:a6:29:66:57:67:3e:c3:f5:2d:56:20:
         0c:f3:65:6e:67:2d:6a:36
-----BEGIN CERTIFICATE-----
MIIF2zCCA8OgAwIBAgIUHRvpKv1aYDzDkKPrBDiWQPZa/qUwDQYJKoZIhvcNAQEL
BQAwfTELMAkGA1UEBhMCVVkxEzARBgNVBAgMCk1vbnRldmlkZW8xEDAOBgNVBAoM
B2pybXNkZXYxDjAMBgNVBAsMBWRldmVsMRUwEwYDVQQDDAxtdW5ib3QuZGV2ZWwx
IDAeBgkqhkiG9w0BCQEWEWpybXNkZXZAZ21haWwuY29tMB4XDTIwMDcwMTA3MDM0
OVoXDTIzMDcwMTA3MDM0OVowfTELMAkGA1UEBhMCVVkxEzARBgNVBAgMCk1vbnRl
dmlkZW8xEDAOBgNVBAoMB2pybXNkZXYxDjAMBgNVBAsMBWRldmVsMRUwEwYDVQQD
DAxtdW5ib3QuZGV2ZWwxIDAeBgkqhkiG9w0BCQEWEWpybXNkZXZAZ21haWwuY29t
MIICIjANBgkqhkiG9w0BAQEFAAOCAg8AMIICCgKCAgEAxTOKyZq5UT13IiLhp3pU
48zBFxwtpaSkN1WCLHnkqGgdrQ9lj0SzR4QIgfxFhY7m3wxajJ4iq6NzRoXVo2SM
NKjp482QIBZCkbeJvCqF1/BIApSLR/30qgrBmvO3y38ywvs/LiFmEf3kYe6J9ea8
48i5Sc0MqIzrRnxL4qUjzIjj5AU4VNbCpJCyjvjUgDRa3ICgN6w4FSqcl34iUvqB
GNoTjENMS6Up0HxkHulWphzq8p7Ykx8FqO2DDuvM0NqSAlWc1WIttL46jl4j7uvW
lO1/2h66Nt4s+QDu8F1LhCRbU0GADnoitRnA1K4GX3wH/tNHde9lBeoFqEDZe6GU
40VzlrLeDgJ5w4Yy7951/8XmRekw8e0W9szv89LRgqA1rekUTjQHtwGG1iIjdVA5
exEq78pNAtW3uRiw2FJcL57TP9MI3pxrCqCC6ts5KUogBTv5XShcflJkmdJtOPXf
WkVpkBGJjMqGVNBaV1wO5OFKV07q3hqjvH0qfzdnS8S4sLtwncEZH00TFTTtNY2M
Bn2NG1SjZgN29bBwgp0RXQT+pA6skkASpPcYKh7czVRkoYGdoEQFhXZOrPCiMNNV
J1UuKSNJDk7IEO93QbztpQBivIDoV4qo1IAKbBSA1VZRCiCdpwIJweYInAoVgTfX
nzBQAGhfypMkho6h73EquYECAwEAAaNTMFEwHQYDVR0OBBYEFOh2k/Vnq46ai4Be
K6aZohtQ3D+YMB8GA1UdIwQYMBaAFOh2k/Vnq46ai4BeK6aZohtQ3D+YMA8GA1Ud
EwEB/wQFMAMBAf8wDQYJKoZIhvcNAQELBQADggIBAIpSvPSw+crtRyZ9RGJ25J4j
5mOkO+58ObJg5hRXF2iqcoXIb/dVct776SKFrAKu5FdpVFkiZsXtZXsviwD8Br05
NY+heFv2SUmN0VRAgHyU+96Oj18VopHDy+1fRUtLYY9Xcg6R/qMYLzzYWBfbQrOj
Ng8ItuARH7uDlEF6cr0VDHzojid9D55NlAnutPDYn1oI6lCGlq6LfHUOIFJIS2LE
y2eg7eHrPh9mjfa72bWc9ICsF6TYmiS5bziQA8GPPQMtYKoJTlpv/kS+939FhPDS
TLEohE/NvBQwUqED7UmTVPECafA8UujwiaPf90+fbqpuk86veuLpAcUZQtMaSEMa
ZoER/qWeB6OoMRssfoagRE593tbtCD3dkAUxV7mDO2jgL7WUVbLubeg766cZP5fZ
T7kKne9EtkJlB+DenWGzpxXbhud39J5V+j6lUU2KOrYRwkrJLf9QYBq5NWBRLET6
Hb5H6Np3P+8gG0CFa7V/WoKkrmxfZd5DVj9FwPqUMBNR6T/Kc29IJ2jgbF4z4Tyh
mEZGqST3KVWXpANHeVLXUvBbGDaR8kgBYF1vn1ZSbyW0Gr8oAUdK0fFjkhHryUQh
ApAqsQgzJeclJmHuf57tDbgY29wiZGQALAsGT7M9yr1BvKDEPRnYw6ZGe6KmKWZX
Zz7D9S1WIAzzZW5nLWo2
-----END CERTIFICATE-----
